
_interrupt:
	MOVWF      R15+0
	SWAPF      STATUS+0, 0
	CLRF       STATUS+0
	MOVWF      ___saveSTATUS+0
	MOVF       PCLATH+0, 0
	MOVWF      ___savePCLATH+0
	CLRF       PCLATH+0
;serial.c,8 :: 		void interrupt() {
;serial.c,9 :: 		TMR0IE_BIT=0;
	BCF        TMR0IE_bit+0, 5
;serial.c,10 :: 		PIE1.RCIE=0;
	BCF        PIE1+0, 5
;serial.c,12 :: 		if (INTCON.TMR0IF) {
	BTFSS      INTCON+0, 2
	GOTO       L_interrupt0
;serial.c,13 :: 		RB0_BIT=~RB0_BIT;
	MOVLW      1
	XORWF      RB0_bit+0, 1
;serial.c,14 :: 		tmrcounter+=1;
	INCF       _tmrcounter+0, 1
	BTFSC      STATUS+0, 2
	INCF       _tmrcounter+1, 1
;serial.c,15 :: 		tmrcmp+=1;
	INCF       _tmrcmp+0, 1
	BTFSC      STATUS+0, 2
	INCF       _tmrcmp+1, 1
;serial.c,16 :: 		if(tmrcounter==200)
	MOVLW      0
	XORWF      _tmrcounter+1, 0
	BTFSS      STATUS+0, 2
	GOTO       L__interrupt8
	MOVLW      200
	XORWF      _tmrcounter+0, 0
L__interrupt8:
	BTFSS      STATUS+0, 2
	GOTO       L_interrupt1
;serial.c,19 :: 		RC1_BIT=1;
	BSF        RC1_bit+0, 1
;serial.c,20 :: 		tmrcounter=0;
	CLRF       _tmrcounter+0
	CLRF       _tmrcounter+1
;serial.c,22 :: 		}
L_interrupt1:
;serial.c,23 :: 		if (tmrcounter==15)
	MOVLW      0
	XORWF      _tmrcounter+1, 0
	BTFSS      STATUS+0, 2
	GOTO       L__interrupt9
	MOVLW      15
	XORWF      _tmrcounter+0, 0
L__interrupt9:
	BTFSS      STATUS+0, 2
	GOTO       L_interrupt2
;serial.c,25 :: 		RC1_BIT=0;
	BCF        RC1_bit+0, 1
;serial.c,26 :: 		}
L_interrupt2:
;serial.c,27 :: 		if(tmrcmp==10000)
	MOVF       _tmrcmp+1, 0
	XORLW      39
	BTFSS      STATUS+0, 2
	GOTO       L__interrupt10
	MOVLW      16
	XORWF      _tmrcmp+0, 0
L__interrupt10:
	BTFSS      STATUS+0, 2
	GOTO       L_interrupt3
;serial.c,30 :: 		tmrcmp=0;
	CLRF       _tmrcmp+0
	CLRF       _tmrcmp+1
;serial.c,33 :: 		if(RCIF_BIT==1)
	BTFSS      RCIF_bit+0, 5
	GOTO       L_interrupt4
;serial.c,35 :: 		output=UART1_Read();
	CALL       _UART1_Read+0
	MOVF       R0+0, 0
	MOVWF      _output+0
;serial.c,39 :: 		UART1_Write(output);
	MOVF       R0+0, 0
	MOVWF      FARG_UART1_Write_data_+0
	CALL       _UART1_Write+0
;serial.c,40 :: 		PORTD=~PORTD;
	COMF       PORTD+0, 1
;serial.c,41 :: 		}
L_interrupt4:
;serial.c,44 :: 		}
L_interrupt3:
;serial.c,46 :: 		INTCON.TMR0IF=0;
	BCF        INTCON+0, 2
;serial.c,47 :: 		TMR0=156;
	MOVLW      156
	MOVWF      TMR0+0
;serial.c,49 :: 		}
L_interrupt0:
;serial.c,51 :: 		TMR0IE_BIT=1;
	BSF        TMR0IE_bit+0, 5
;serial.c,52 :: 		PIE1.RCIE=1;
	BSF        PIE1+0, 5
;serial.c,53 :: 		}
L__interrupt7:
	MOVF       ___savePCLATH+0, 0
	MOVWF      PCLATH+0
	SWAPF      ___saveSTATUS+0, 0
	MOVWF      STATUS+0
	SWAPF      R15+0, 1
	SWAPF      R15+0, 0
	RETFIE
; end of _interrupt

_main:
;serial.c,56 :: 		void main()
;serial.c,58 :: 		TRISB=0;
	CLRF       TRISB+0
;serial.c,59 :: 		PORTB=0;
	CLRF       PORTB+0
;serial.c,60 :: 		TRISC=0;
	CLRF       TRISC+0
;serial.c,61 :: 		PORTC=0;
	CLRF       PORTC+0
;serial.c,62 :: 		TRISD=0;
	CLRF       TRISD+0
;serial.c,63 :: 		PORTD=0;
	CLRF       PORTD+0
;serial.c,64 :: 		reset=0;
	CLRF       _reset+0
	CLRF       _reset+1
;serial.c,65 :: 		max_value=200;
	MOVLW      200
	MOVWF      _max_value+0
	CLRF       _max_value+1
;serial.c,66 :: 		cw=192;
	MOVLW      192
	MOVWF      _cw+0
	CLRF       _cw+1
;serial.c,67 :: 		tmrcounter=0;
	CLRF       _tmrcounter+0
	CLRF       _tmrcounter+1
;serial.c,68 :: 		tmrcmp=0;
	CLRF       _tmrcmp+0
	CLRF       _tmrcmp+1
;serial.c,69 :: 		UART1_Init(9600);
	MOVLW      51
	MOVWF      SPBRG+0
	BSF        TXSTA+0, 2
	CALL       _UART1_Init+0
;serial.c,71 :: 		OPTION_REG=0x00;
	CLRF       OPTION_REG+0
;serial.c,72 :: 		GIE_BIT=1  ;
	BSF        GIE_bit+0, 7
;serial.c,73 :: 		PEIE_BIT=1;
	BSF        PEIE_bit+0, 6
;serial.c,74 :: 		TMR0=156;
	MOVLW      156
	MOVWF      TMR0+0
;serial.c,75 :: 		PIE1.RCIE=1;
	BSF        PIE1+0, 5
;serial.c,76 :: 		TMR0IE_BIT=1;
	BSF        TMR0IE_bit+0, 5
;serial.c,77 :: 		while(1)
L_main5:
;serial.c,79 :: 		}
	GOTO       L_main5
;serial.c,82 :: 		}
	GOTO       $+0
; end of _main
